; Function Attrs: nounwind uwtable
define noalias noundef ptr @Saig_ManRetimeInitState(ptr noundef %0) local_unnamed_addr #0 {
  %2 = tail call ptr @Cnf_DeriveSimpleForRetiming(ptr noundef %0) #13
  %3 = tail call ptr @Cnf_DataWriteIntoSolver(ptr noundef %2, i32 noundef 1, i32 noundef 0) #13
  %4 = icmp eq ptr %3, null
  br i1 %4, label %74, label %5

5:                                                ; preds = %1
  %6 = tail call i32 @sat_solver_solve(ptr noundef nonnull %3, ptr noundef null, ptr noundef null, i64 noundef 1000000, i64 noundef 0, i64 noundef 0, i64 noundef 0) #13
  %7 = icmp eq i32 %6, 1
  br i1 %7, label %8, label %73

8:                                                ; preds = %5
  %9 = getelementptr i8, ptr %0, i64 136
  %.val = load i32, ptr %9, align 8
  %10 = tail call noalias dereferenceable_or_null(16) ptr @malloc(i64 noundef 16) #14
  %11 = add i32 %.val, -1
  %or.cond.i = icmp ult i32 %11, 15
  %spec.store.select.i = select i1 %or.cond.i, i32 16, i32 %.val
  %12 = getelementptr inbounds nuw i8, ptr %10, i64 4
  store i32 0, ptr %12, align 4
  store i32 %spec.store.select.i, ptr %10, align 8
  %.not.i = icmp eq i32 %spec.store.select.i, 0
  br i1 %.not.i, label %Vec_IntAlloc.exit, label %13

13:                                               ; preds = %8
  %14 = sext i32 %spec.store.select.i to i64
  %15 = shl nsw i64 %14, 2
  %16 = tail call noalias ptr @malloc(i64 noundef %15) #14
  br label %Vec_IntAlloc.exit

Vec_IntAlloc.exit:                                ; preds = %8, %13
  %17 = phi ptr [ %16, %13 ], [ null, %8 ]
  %18 = getelementptr inbounds nuw i8, ptr %10, i64 8
  store ptr %17, ptr %18, align 8
  %19 = getelementptr inbounds nuw i8, ptr %0, i64 16
  %20 = load ptr, ptr %19, align 8
  %21 = getelementptr i8, ptr %20, i64 4
  %.val2932 = load i32, ptr %21, align 4
  %22 = icmp sgt i32 %.val2932, 0
  br i1 %22, label %.lr.ph, label %.critedge

.lr.ph:                                           ; preds = %Vec_IntAlloc.exit
  %23 = getelementptr inbounds nuw i8, ptr %2, i64 32
  br label %24

24:                                               ; preds = %.lr.ph, %Vec_IntPush.exit
  %indvars.iv = phi i64 [ 0, %.lr.ph ], [ %indvars.iv.next, %Vec_IntPush.exit ]
  %25 = phi ptr [ %20, %.lr.ph ], [ %62, %Vec_IntPush.exit ]
  %26 = getelementptr i8, ptr %25, i64 8
  %.val30 = load ptr, ptr %26, align 8
  %27 = getelementptr inbounds nuw ptr, ptr %.val30, i64 %indvars.iv
  %28 = load ptr, ptr %27, align 8
  %29 = load ptr, ptr %23, align 8
  %30 = getelementptr inbounds nuw i8, ptr %28, i64 36
  %31 = load i32, ptr %30, align 4
  %32 = sext i32 %31 to i64
  %33 = getelementptr inbounds i32, ptr %29, i64 %32
  %34 = load i32, ptr %33, align 4
  %35 = load i32, ptr %12, align 4
  %36 = load i32, ptr %10, align 8
  %37 = icmp eq i32 %35, %36
  br i1 %37, label %38, label %.Vec_IntGrow.exit10_crit_edge.i

.Vec_IntGrow.exit10_crit_edge.i:                  ; preds = %24
  %.pre.i = load ptr, ptr %18, align 8
  br label %Vec_IntPush.exit

38:                                               ; preds = %24
  %39 = icmp slt i32 %35, 16
  br i1 %39, label %40, label %47

40:                                               ; preds = %38
  %41 = load ptr, ptr %18, align 8
  %.not9.i.i = icmp eq ptr %41, null
  br i1 %.not9.i.i, label %44, label %42

42:                                               ; preds = %40
  %43 = tail call dereferenceable_or_null(64) ptr @realloc(ptr noundef nonnull %41, i64 noundef 64) #15
  br label %Vec_IntGrow.exit.i

44:                                               ; preds = %40
  %45 = tail call noalias dereferenceable_or_null(64) ptr @malloc(i64 noundef 64) #14
  br label %Vec_IntGrow.exit.i

Vec_IntGrow.exit.i:                               ; preds = %44, %42
  %46 = phi ptr [ %43, %42 ], [ %45, %44 ]
  store ptr %46, ptr %18, align 8
  store i32 16, ptr %10, align 8
  br label %Vec_IntPush.exit

47:                                               ; preds = %38
  %48 = shl nuw nsw i32 %35, 1
  %49 = load ptr, ptr %18, align 8
  %.not9.i9.i = icmp eq ptr %49, null
  %50 = zext nneg i32 %48 to i64
  %51 = shl nuw nsw i64 %50, 2
  br i1 %.not9.i9.i, label %54, label %52

52:                                               ; preds = %47
  %53 = tail call ptr @realloc(ptr noundef nonnull %49, i64 noundef %51) #15
  br label %56

54:                                               ; preds = %47
  %55 = tail call noalias ptr @malloc(i64 noundef %51) #14
  br label %56

56:                                               ; preds = %54, %52
  %57 = phi ptr [ %53, %52 ], [ %55, %54 ]
  store ptr %57, ptr %18, align 8
  store i32 %48, ptr %10, align 8
  br label %Vec_IntPush.exit

Vec_IntPush.exit:                                 ; preds = %.Vec_IntGrow.exit10_crit_edge.i, %Vec_IntGrow.exit.i, %56
  %58 = phi ptr [ %.pre.i, %.Vec_IntGrow.exit10_crit_edge.i ], [ %57, %56 ], [ %46, %Vec_IntGrow.exit.i ]
  %59 = add nsw i32 %35, 1
  store i32 %59, ptr %12, align 4
  %60 = sext i32 %35 to i64
  %61 = getelementptr inbounds i32, ptr %58, i64 %60
  store i32 %34, ptr %61, align 4
  %indvars.iv.next = add nuw nsw i64 %indvars.iv, 1
  %62 = load ptr, ptr %19, align 8
  %63 = getelementptr i8, ptr %62, i64 4
  %.val29 = load i32, ptr %63, align 4
  %64 = sext i32 %.val29 to i64
  %65 = icmp slt i64 %indvars.iv.next, %64
  br i1 %65, label %24, label %.critedge.loopexit, !llvm.loop !4

.critedge.loopexit:                               ; preds = %Vec_IntPush.exit
  %.pre = load ptr, ptr %18, align 8
  %.pre35 = load i32, ptr %12, align 4
  br label %.critedge

.critedge:                                        ; preds = %.critedge.loopexit, %Vec_IntAlloc.exit
  %66 = phi i32 [ %.pre35, %.critedge.loopexit ], [ 0, %Vec_IntAlloc.exit ]
  %67 = phi ptr [ %.pre, %.critedge.loopexit ], [ %17, %Vec_IntAlloc.exit ]
  %68 = tail call ptr @Sat_SolverGetModel(ptr noundef nonnull %3, ptr noundef %67, i32 noundef %66) #13
  %.val28 = load i32, ptr %9, align 8
  %69 = tail call noalias dereferenceable_or_null(16) ptr @malloc(i64 noundef 16) #14
  %70 = getelementptr inbounds nuw i8, ptr %69, i64 4
  store i32 %.val28, ptr %70, align 4
  store i32 %.val28, ptr %69, align 8
  %71 = getelementptr inbounds nuw i8, ptr %69, i64 8
  store ptr %68, ptr %71, align 8
  %.not.i31 = icmp eq ptr %67, null
  br i1 %.not.i31, label %Vec_IntFree.exit, label %72

72:                                               ; preds = %.critedge
  tail call void @free(ptr noundef nonnull %67) #13
  br label %Vec_IntFree.exit

Vec_IntFree.exit:                                 ; preds = %.critedge, %72
  tail call void @free(ptr noundef nonnull %10) #13
  br label %73

73:                                               ; preds = %Vec_IntFree.exit, %5
  %.025 = phi ptr [ %69, %Vec_IntFree.exit ], [ null, %5 ]
  tail call void @sat_solver_delete(ptr noundef nonnull %3) #13
  br label %74

74:                                               ; preds = %1, %73
  %.0 = phi ptr [ %.025, %73 ], [ null, %1 ]
  tail call void @Cnf_DataFree(ptr noundef %2) #13
  ret ptr %.0
}